target datalayout = "e-m:e-p270:32:32-p271:32:32-p272:64:64-i64:64-i128:128-f80:128-n8:16:32:64-S128"
target triple = "x86_64-pc-linux-gnu"

%struct.Cgt_Par_t_ = type { i32, i32, i32, i32, i32, i32, i32, i32, i32 }
%struct.Vec_Ptr_t_ = type { i32, i32, ptr }
%struct.Aig_Obj_t_ = type { %union.anon, ptr, ptr, i64, i32, i32, %union.anon.0 }
%union.anon = type { ptr }
%union.anon.0 = type { ptr }
%struct.Aig_Man_t_ = type { ptr, ptr, ptr, ptr, ptr, ptr, ptr, %struct.Aig_Obj_t_, i32, i32, i32, i32, i32, i32, [7 x i32], i32, ptr, i32, ptr, i32, ptr, i32, i32, i32, ptr, i32, i32, i32, i32, i32, ptr, ptr, i32, ptr, ptr, i32, ptr, ptr, i32, i32, i32, ptr, ptr, ptr, ptr, ptr, ptr, ptr, ptr, ptr, ptr, ptr, ptr, ptr, ptr, i32, ptr, ptr, ptr, ptr, i32, i64, i64, i64, ptr, ptr }
%struct.Vec_Vec_t_ = type { i32, i32, ptr }

@.str.4 = private unnamed_addr constant [76 x i8] c"Nodes: Before CG = %6d. After CG = %6d. (%6.2f %%).  Total after CG = %6d.\0A\00", align 1

; Function Attrs: inlinehint nounwind uwtable
define internal void @Vec_PtrFree(ptr noundef %0) #3 {
  %2 = alloca ptr, align 8
  store ptr %0, ptr %2, align 8, !tbaa !38
  %3 = load ptr, ptr %2, align 8, !tbaa !38
  %4 = getelementptr inbounds nuw %struct.Vec_Ptr_t_, ptr %3, i32 0, i32 2
  %5 = load ptr, ptr %4, align 8, !tbaa !39
  %6 = icmp ne ptr %5, null
  br i1 %6, label %7, label %13

7:                                                ; preds = %1
  %8 = load ptr, ptr %2, align 8, !tbaa !38
  %9 = getelementptr inbounds nuw %struct.Vec_Ptr_t_, ptr %8, i32 0, i32 2
  %10 = load ptr, ptr %9, align 8, !tbaa !39
  call void @free(ptr noundef %10) #11
  %11 = load ptr, ptr %2, align 8, !tbaa !38
  %12 = getelementptr inbounds nuw %struct.Vec_Ptr_t_, ptr %11, i32 0, i32 2
  store ptr null, ptr %12, align 8, !tbaa !39
  br label %14

13:                                               ; preds = %1
  br label %14

14:                                               ; preds = %13, %7
  %15 = load ptr, ptr %2, align 8, !tbaa !38
  %16 = icmp ne ptr %15, null
  br i1 %16, label %17, label %19

17:                                               ; preds = %14
  %18 = load ptr, ptr %2, align 8, !tbaa !38
  call void @free(ptr noundef %18) #11
  store ptr null, ptr %2, align 8, !tbaa !38
  br label %20

19:                                               ; preds = %14
  br label %20

20:                                               ; preds = %19, %17
  ret void
}

; Function Attrs: inlinehint nounwind uwtable
define internal ptr @Vec_VecEntry(ptr noundef %0, i32 noundef %1) #3 {
  %3 = alloca ptr, align 8
  %4 = alloca i32, align 4
  store ptr %0, ptr %3, align 8, !tbaa !86
  store i32 %1, ptr %4, align 4, !tbaa !31
  %5 = load ptr, ptr %3, align 8, !tbaa !86
  %6 = getelementptr inbounds nuw %struct.Vec_Vec_t_, ptr %5, i32 0, i32 2
  %7 = load ptr, ptr %6, align 8, !tbaa !89
  %8 = load i32, ptr %4, align 4, !tbaa !31
  %9 = sext i32 %8 to i64
  %10 = getelementptr inbounds ptr, ptr %7, i64 %9
  %11 = load ptr, ptr %10, align 8, !tbaa !41
  ret ptr %11
}

; Function Attrs: inlinehint nounwind uwtable
define internal i32 @Vec_VecSize(ptr noundef %0) #3 {
  %2 = alloca ptr, align 8
  store ptr %0, ptr %2, align 8, !tbaa !86
  %3 = load ptr, ptr %2, align 8, !tbaa !86
  %4 = getelementptr inbounds nuw %struct.Vec_Vec_t_, ptr %3, i32 0, i32 1
  %5 = load i32, ptr %4, align 4, !tbaa !87
  ret i32 %5
}

; Function Attrs: inlinehint nounwind uwtable
define internal void @Vec_VecFree(ptr noundef %0) #3 {
  %2 = alloca ptr, align 8
  %3 = alloca ptr, align 8
  %4 = alloca i32, align 4
  store ptr %0, ptr %2, align 8, !tbaa !86
  call void @llvm.lifetime.start.p0(i64 8, ptr %3) #11
  call void @llvm.lifetime.start.p0(i64 4, ptr %4) #11
  store i32 0, ptr %4, align 4, !tbaa !31
  br label %5

5:                                                ; preds = %22, %1
  %6 = load i32, ptr %4, align 4, !tbaa !31
  %7 = load ptr, ptr %2, align 8, !tbaa !86
  %8 = call i32 @Vec_VecSize(ptr noundef %7)
  %9 = icmp slt i32 %6, %8
  br i1 %9, label %10, label %14

10:                                               ; preds = %5
  %11 = load ptr, ptr %2, align 8, !tbaa !86
  %12 = load i32, ptr %4, align 4, !tbaa !31
  %13 = call ptr @Vec_VecEntry(ptr noundef %11, i32 noundef %12)
  store ptr %13, ptr %3, align 8, !tbaa !38
  br label %14

14:                                               ; preds = %10, %5
  %15 = phi i1 [ false, %5 ], [ true, %10 ]
  br i1 %15, label %16, label %25

16:                                               ; preds = %14
  %17 = load ptr, ptr %3, align 8, !tbaa !38
  %18 = icmp ne ptr %17, null
  br i1 %18, label %19, label %21

19:                                               ; preds = %16
  %20 = load ptr, ptr %3, align 8, !tbaa !38
  call void @Vec_PtrFree(ptr noundef %20)
  br label %21

21:                                               ; preds = %19, %16
  br label %22

22:                                               ; preds = %21
  %23 = load i32, ptr %4, align 4, !tbaa !31
  %24 = add nsw i32 %23, 1
  store i32 %24, ptr %4, align 4, !tbaa !31
  br label %5, !llvm.loop !113

25:                                               ; preds = %14
  %26 = load ptr, ptr %2, align 8, !tbaa !86
  call void @Vec_PtrFree(ptr noundef %26)
  call void @llvm.lifetime.end.p0(i64 4, ptr %4) #11
  call void @llvm.lifetime.end.p0(i64 8, ptr %3) #11
  ret void
}

; Function Attrs: inlinehint nounwind uwtable
define internal i32 @Aig_ManNodeNum(ptr noundef %0) #3 {
  %2 = alloca ptr, align 8
  store ptr %0, ptr %2, align 8, !tbaa !83
  %3 = load ptr, ptr %2, align 8, !tbaa !83
  %4 = getelementptr inbounds nuw %struct.Aig_Man_t_, ptr %3, i32 0, i32 14
  %5 = getelementptr inbounds [7 x i32], ptr %4, i64 0, i64 5
  %6 = load i32, ptr %5, align 4, !tbaa !31
  %7 = load ptr, ptr %2, align 8, !tbaa !83
  %8 = getelementptr inbounds nuw %struct.Aig_Man_t_, ptr %7, i32 0, i32 14
  %9 = getelementptr inbounds [7 x i32], ptr %8, i64 0, i64 6
  %10 = load i32, ptr %9, align 8, !tbaa !31
  %11 = add nsw i32 %6, %10
  ret i32 %11
}

; Function Attrs: nounwind uwtable
define ptr @Cgt_ClockGating(ptr noundef %0, ptr noundef %1, ptr noundef %2) #0 {
  %4 = alloca ptr, align 8
  %5 = alloca ptr, align 8
  %6 = alloca ptr, align 8
  %7 = alloca ptr, align 8
  %8 = alloca ptr, align 8
  %9 = alloca i32, align 4
  store ptr %0, ptr %4, align 8, !tbaa !83
  store ptr %1, ptr %5, align 8, !tbaa !83
  store ptr %2, ptr %6, align 8, !tbaa !3
  call void @llvm.lifetime.start.p0(i64 8, ptr %7) #11
  call void @llvm.lifetime.start.p0(i64 8, ptr %8) #11
  %10 = load ptr, ptr %4, align 8, !tbaa !83
  %11 = load ptr, ptr %5, align 8, !tbaa !83
  %12 = load ptr, ptr %6, align 8, !tbaa !3
  %13 = call ptr @Cgt_ClockGatingInt(ptr noundef %10, ptr noundef %11, ptr noundef %12, ptr noundef null)
  store ptr %13, ptr %8, align 8, !tbaa !86
  call void @llvm.lifetime.start.p0(i64 4, ptr %9) #11
  %14 = load ptr, ptr %6, align 8, !tbaa !3
  %15 = getelementptr inbounds nuw %struct.Cgt_Par_t_, ptr %14, i32 0, i32 7
  %16 = load i32, ptr %15, align 4, !tbaa !17
  %17 = icmp ne i32 %16, 0
  br i1 %17, label %18, label %19

18:                                               ; preds = %3
  br label %19

19:                                               ; preds = %18, %3
  %20 = load ptr, ptr %4, align 8, !tbaa !83
  %21 = load ptr, ptr %8, align 8, !tbaa !86
  %22 = load ptr, ptr %6, align 8, !tbaa !3
  %23 = getelementptr inbounds nuw %struct.Cgt_Par_t_, ptr %22, i32 0, i32 6
  %24 = load i32, ptr %23, align 4, !tbaa !16
  %25 = call ptr @Cgt_ManDeriveGatedAig(ptr noundef %20, ptr noundef %21, i32 noundef %24, ptr noundef %9)
  store ptr %25, ptr %7, align 8, !tbaa !83
  %26 = load ptr, ptr %6, align 8, !tbaa !3
  %27 = getelementptr inbounds nuw %struct.Cgt_Par_t_, ptr %26, i32 0, i32 7
  %28 = load i32, ptr %27, align 4, !tbaa !17
  %29 = icmp ne i32 %28, 0
  br i1 %29, label %30, label %44

30:                                               ; preds = %19
  %31 = load ptr, ptr %4, align 8, !tbaa !83
  %32 = call i32 @Aig_ManNodeNum(ptr noundef %31)
  %33 = load i32, ptr %9, align 4, !tbaa !31
  %34 = load i32, ptr %9, align 4, !tbaa !31
  %35 = sitofp i32 %34 to double
  %36 = fmul double 1.000000e+02, %35
  %37 = load ptr, ptr %4, align 8, !tbaa !83
  %38 = call i32 @Aig_ManNodeNum(ptr noundef %37)
  %39 = sitofp i32 %38 to double
  %40 = fdiv double %36, %39
  %41 = load ptr, ptr %7, align 8, !tbaa !83
  %42 = call i32 @Aig_ManNodeNum(ptr noundef %41)
  %43 = call i32 (ptr, ...) @printf(ptr noundef @.str.4, i32 noundef %32, i32 noundef %33, double noundef %40, i32 noundef %42)
  br label %44

44:                                               ; preds = %30, %19
  %45 = load ptr, ptr %8, align 8, !tbaa !86
  call void @Vec_VecFree(ptr noundef %45)
  %46 = load ptr, ptr %7, align 8, !tbaa !83
  call void @llvm.lifetime.end.p0(i64 4, ptr %9) #11
  call void @llvm.lifetime.end.p0(i64 8, ptr %8) #11
  call void @llvm.lifetime.end.p0(i64 8, ptr %7) #11
  ret ptr %46
}