; Function Attrs: nounwind uwtable
define ptr @Cgt_ClockGating(ptr noundef %0, ptr noundef %1, ptr noundef %2) local_unnamed_addr #4 {
  %4 = alloca i32, align 4
  %5 = tail call ptr @Cgt_ClockGatingInt(ptr noundef %0, ptr noundef %1, ptr noundef %2, ptr noundef null)
  call void @llvm.lifetime.start.p0(i64 4, ptr nonnull %4) #17
  %6 = getelementptr inbounds nuw i8, ptr %2, i64 28
  %7 = getelementptr inbounds nuw i8, ptr %2, i64 24
  %8 = load i32, ptr %7, align 4, !tbaa !13
  %9 = call ptr @Cgt_ManDeriveGatedAig(ptr noundef %0, ptr noundef %5, i32 noundef %8, ptr noundef nonnull %4) #17
  %10 = load i32, ptr %6, align 4, !tbaa !14
  %.not = icmp eq i32 %10, 0
  br i1 %.not, label %24, label %11

11:                                               ; preds = %3
  %12 = getelementptr i8, ptr %0, i64 148
  %.val = load i32, ptr %12, align 4, !tbaa !35
  %13 = getelementptr i8, ptr %0, i64 152
  %.val13 = load i32, ptr %13, align 8, !tbaa !35
  %14 = add nsw i32 %.val13, %.val
  %15 = load i32, ptr %4, align 4, !tbaa !35
  %16 = sitofp i32 %15 to double
  %17 = fmul double %16, 1.000000e+02
  %18 = sitofp i32 %14 to double
  %19 = fdiv double %17, %18
  %20 = getelementptr i8, ptr %9, i64 148
  %.val16 = load i32, ptr %20, align 4, !tbaa !35
  %21 = getelementptr i8, ptr %9, i64 152
  %.val17 = load i32, ptr %21, align 8, !tbaa !35
  %22 = add nsw i32 %.val17, %.val16
  %23 = call i32 (ptr, ...) @printf(ptr noundef nonnull dereferenceable(1) @.str.4, i32 noundef %14, i32 noundef %15, double noundef %19, i32 noundef %22)
  br label %24

24:                                               ; preds = %11, %3
  %25 = getelementptr i8, ptr %5, i64 4
  %.val811.i = load i32, ptr %25, align 4, !tbaa !76
  %26 = icmp sgt i32 %.val811.i, 0
  br i1 %26, label %.lr.ph.i, label %.critedge.i

.lr.ph.i:                                         ; preds = %24
  %27 = getelementptr i8, ptr %5, i64 8
  br label %28

28:                                               ; preds = %35, %.lr.ph.i
  %.val814.i = phi i32 [ %.val811.i, %.lr.ph.i ], [ %.val8.i, %35 ]
  %indvars.iv.i = phi i64 [ 0, %.lr.ph.i ], [ %indvars.iv.next.i, %35 ]
  %.val.i = load ptr, ptr %27, align 8, !tbaa !79
  %29 = getelementptr inbounds nuw ptr, ptr %.val.i, i64 %indvars.iv.i
  %30 = load ptr, ptr %29, align 8, !tbaa !32
  %.not.i = icmp eq ptr %30, null
  br i1 %.not.i, label %35, label %31

31:                                               ; preds = %28
  %32 = getelementptr inbounds nuw i8, ptr %30, i64 8
  %33 = load ptr, ptr %32, align 8, !tbaa !30
  %.not.i.i = icmp eq ptr %33, null
  br i1 %.not.i.i, label %Vec_PtrFree.exit.i, label %34

34:                                               ; preds = %31
  call void @free(ptr noundef nonnull %33) #17
  br label %Vec_PtrFree.exit.i

Vec_PtrFree.exit.i:                               ; preds = %34, %31
  call void @free(ptr noundef nonnull %30) #17
  %.val8.pre.i = load i32, ptr %25, align 4, !tbaa !76
  br label %35

35:                                               ; preds = %Vec_PtrFree.exit.i, %28
  %.val8.i = phi i32 [ %.val814.i, %28 ], [ %.val8.pre.i, %Vec_PtrFree.exit.i ]
  %indvars.iv.next.i = add nuw nsw i64 %indvars.iv.i, 1
  %36 = sext i32 %.val8.i to i64
  %37 = icmp slt i64 %indvars.iv.next.i, %36
  br i1 %37, label %28, label %.critedge.i, !llvm.loop !106

.critedge.i:                                      ; preds = %35, %24
  %38 = getelementptr inbounds nuw i8, ptr %5, i64 8
  %39 = load ptr, ptr %38, align 8, !tbaa !30
  %.not.i9.i = icmp eq ptr %39, null
  br i1 %.not.i9.i, label %Vec_VecFree.exit, label %40

40:                                               ; preds = %.critedge.i
  call void @free(ptr noundef nonnull %39) #17
  br label %Vec_VecFree.exit

Vec_VecFree.exit:                                 ; preds = %.critedge.i, %40
  call void @free(ptr noundef nonnull %5) #17
  call void @llvm.lifetime.end.p0(i64 4, ptr nonnull %4) #17
  ret ptr %9
}